; Function Attrs: mustprogress norecurse uwtable
define internal fastcc noundef zeroext i1 @_ZL13TestCBBMisusev() unnamed_addr #0 personality ptr @__gxx_personality_v0 {
  %1 = alloca %struct.cbb_st, align 8
  %2 = alloca %struct.cbb_st, align 8
  %3 = alloca %struct.cbb_st, align 8
  %4 = alloca ptr, align 8
  %5 = alloca i64, align 8
  call void @llvm.lifetime.start.p0(i64 32, ptr nonnull %1) #12
  call void @llvm.lifetime.start.p0(i64 32, ptr nonnull %2) #12
  call void @llvm.lifetime.start.p0(i64 32, ptr nonnull %3) #12
  call void @llvm.lifetime.start.p0(i64 8, ptr nonnull %4) #12
  call void @llvm.lifetime.start.p0(i64 8, ptr nonnull %5) #12
  %6 = call i32 @CBB_init(ptr noundef nonnull %1, i64 noundef 0)
  %.not = icmp eq i32 %6, 0
  br i1 %.not, label %_ZNSt10unique_ptrIh11OpenSSLFreeIhEED2Ev.exit, label %7

7:                                                ; preds = %0
  %8 = call i32 @CBB_add_u8_length_prefixed(ptr noundef nonnull %1, ptr noundef nonnull %2)
  %.not1 = icmp eq i32 %8, 0
  br i1 %.not1, label %13, label %9

9:                                                ; preds = %7
  %10 = call i32 @CBB_add_u8(ptr noundef nonnull %2, i8 noundef zeroext 1)
  %.not2 = icmp eq i32 %10, 0
  br i1 %.not2, label %13, label %11

11:                                               ; preds = %9
  %12 = call i32 @CBB_add_u8(ptr noundef nonnull %1, i8 noundef zeroext 2)
  %.not3 = icmp eq i32 %12, 0
  br i1 %.not3, label %13, label %14

13:                                               ; preds = %11, %9, %7
  call void @CBB_cleanup(ptr noundef nonnull %1)
  br label %_ZNSt10unique_ptrIh11OpenSSLFreeIhEED2Ev.exit

14:                                               ; preds = %11
  %15 = call i32 @CBB_add_u8(ptr noundef nonnull %2, i8 noundef zeroext 1)
  %.not4 = icmp eq i32 %15, 0
  br i1 %.not4, label %16, label %28

16:                                               ; preds = %14
  %17 = call i32 @CBB_add_u16(ptr noundef nonnull %2, i16 noundef zeroext 1)
  %.not5 = icmp eq i32 %17, 0
  br i1 %.not5, label %18, label %28

18:                                               ; preds = %16
  %19 = call i32 @CBB_add_u24(ptr noundef nonnull %2, i32 noundef 1)
  %.not6 = icmp eq i32 %19, 0
  br i1 %.not6, label %20, label %28

20:                                               ; preds = %18
  %21 = call i32 @CBB_add_u8_length_prefixed(ptr noundef nonnull %2, ptr noundef nonnull %3)
  %.not7 = icmp eq i32 %21, 0
  br i1 %.not7, label %22, label %28

22:                                               ; preds = %20
  %23 = call i32 @CBB_add_u16_length_prefixed(ptr noundef nonnull %2, ptr noundef nonnull %3)
  %.not8 = icmp eq i32 %23, 0
  br i1 %.not8, label %24, label %28

24:                                               ; preds = %22
  %25 = call i32 @CBB_add_asn1(ptr noundef nonnull %2, ptr noundef nonnull %3, i8 noundef zeroext 1)
  %.not9 = icmp eq i32 %25, 0
  br i1 %.not9, label %26, label %28

26:                                               ; preds = %24
  %27 = call i32 @CBB_add_bytes(ptr noundef nonnull %2, ptr noundef nonnull @.str.4, i64 noundef 1)
  %.not10 = icmp eq i32 %27, 0
  br i1 %.not10, label %31, label %28

28:                                               ; preds = %26, %24, %22, %20, %18, %16, %14
  %29 = load ptr, ptr @stderr, align 8, !tbaa !16
  %30 = call i64 @fwrite(ptr nonnull @.str.5, i64 43, i64 1, ptr %29) #13
  call void @CBB_cleanup(ptr noundef nonnull %1)
  br label %_ZNSt10unique_ptrIh11OpenSSLFreeIhEED2Ev.exit

31:                                               ; preds = %26
  %32 = call i32 @CBB_finish(ptr noundef nonnull %1, ptr noundef nonnull %4, ptr noundef nonnull %5)
  %.not11 = icmp eq i32 %32, 0
  br i1 %.not11, label %33, label %34

33:                                               ; preds = %31
  call void @CBB_cleanup(ptr noundef nonnull %1)
  br label %_ZNSt10unique_ptrIh11OpenSSLFreeIhEED2Ev.exit

34:                                               ; preds = %31
  %35 = load ptr, ptr %4, align 8, !tbaa !11
  %36 = load i64, ptr %5, align 8, !tbaa !14
  %.not12 = icmp eq i64 %36, 3
  br i1 %.not12, label %.thread, label %37

.thread:                                          ; preds = %34
  %bcmp = call i32 @bcmp(ptr noundef nonnull dereferenceable(3) %35, ptr noundef nonnull dereferenceable(3) @.str.6, i64 3)
  %.not13 = icmp eq i32 %bcmp, 0
  br label %38

37:                                               ; preds = %34
  %.not.i = icmp eq ptr %35, null
  br i1 %.not.i, label %_ZNSt10unique_ptrIh11OpenSSLFreeIhEED2Ev.exit, label %38

38:                                               ; preds = %.thread, %37
  %.116 = phi i1 [ %.not13, %.thread ], [ false, %37 ]
  call void @free(ptr noundef nonnull %35) #12
  br label %_ZNSt10unique_ptrIh11OpenSSLFreeIhEED2Ev.exit

_ZNSt10unique_ptrIh11OpenSSLFreeIhEED2Ev.exit:    ; preds = %38, %37, %0, %33, %28, %13
  %.0 = phi i1 [ false, %28 ], [ false, %33 ], [ false, %13 ], [ false, %0 ], [ false, %37 ], [ %.116, %38 ]
  call void @llvm.lifetime.end.p0(i64 8, ptr nonnull %5) #12
  call void @llvm.lifetime.end.p0(i64 8, ptr nonnull %4) #12
  call void @llvm.lifetime.end.p0(i64 32, ptr nonnull %3) #12
  call void @llvm.lifetime.end.p0(i64 32, ptr nonnull %2) #12
  call void @llvm.lifetime.end.p0(i64 32, ptr nonnull %1) #12
  ret i1 %.0
}